Certificate:
    Data:
        Version: 3 (0x2)
        Serial Number: 1 (0x1)
    Signature Algorithm: sha256WithRSAEncryption
        Issuer: C=US, ST=CA, L=SanFrancisco, O=Fort-Funston, OU=MyOrganizationalUnit, CN=Fort-Funston CA/name=EasyRSA/emailAddress=me@myhost.mydomain
        Validity
            Not Before: Nov 29 19:01:41 2020 GMT
            Not After : Nov 27 19:01:41 2030 GMT
        Subject: C=US, ST=CA, L=SanFrancisco, O=Fort-Funston, OU=MyOrganizationalUnit, CN=server/name=EasyRSA/emailAddress=me@myhost.mydomain
        Subject Public Key Info:
            Public Key Algorithm: rsaEncryption
                Public-Key: (2048 bit)
                Modulus:
                    00:e2:b3:b2:14:18:62:24:83:da:e2:03:3e:15:eb:
                    a2:40:4e:0e:bd:b4:f1:1b:1e:11:bf:c7:12:d9:c9:
                    48:83:85:ca:d6:b8:d5:24:b0:4b:d9:1e:68:01:96:
                    1f:97:37:e2:a2:c8:04:c6:39:bc:7d:03:fb:8f:9d:
                    26:03:7e:d9:68:ca:46:5a:f1:52:2b:01:d8:dd:b4:
                    45:a9:f5:60:38:95:d4:56:48:95:2c:8b:0e:ce:c9:
                    a5:ca:e9:b4:f2:5a:eb:38:62:0b:e4:63:1c:89:aa:
                    b9:12:80:3b:00:7b:56:0d:db:bf:34:2e:14:d7:e1:
                    3b:6d:d4:d7:02:ef:fb:36:84:b4:d9:2b:47:9b:26:
                    df:5c:a9:73:1c:58:27:fe:0e:64:2d:11:7c:3f:23:
                    62:11:42:5c:45:58:3f:e3:a2:b6:d5:30:e5:86:e9:
                    9b:0f:41:83:8a:83:bc:12:b0:ac:65:44:05:58:8b:
                    36:36:34:39:85:a4:17:b7:d7:73:71:4d:8d:01:4f:
                    98:95:ef:c2:e3:de:90:ff:d4:dc:ed:01:f5:5f:dd:
                    e4:d7:d4:02:9f:df:3e:dc:42:4b:6b:fe:cc:ef:3e:
                    3f:3f:1e:ed:85:88:5d:66:11:04:5f:de:d9:05:c7:
                    42:47:93:ae:5b:6d:ae:d0:c8:04:09:c5:4f:60:23:
                    e8:81
                Exponent: 65537 (0x10001)
        X509v3 extensions:
            X509v3 Basic Constraints: 
                CA:FALSE
            Netscape Cert Type: 
                SSL Server
            Netscape Comment: 
                Easy-RSA Generated Server Certificate
            X509v3 Subject Key Identifier: 
                55:63:92:9A:3E:7B:AC:8D:9B:BC:18:8B:95:CF:31:D2:B1:86:5D:ED
            X509v3 Authority Key Identifier: 
                keyid:6B:FE:8B:F2:39:C2:98:A0:EB:2E:99:A2:FC:19:32:76:E2:26:69:5D
                DirName:/C=US/ST=CA/L=SanFrancisco/O=Fort-Funston/OU=MyOrganizationalUnit/CN=Fort-Funston CA/name=EasyRSA/emailAddress=me@myhost.mydomain
                serial:91:39:D8:5A:07:7F:C2:72

            X509v3 Extended Key Usage: 
                TLS Web Server Authentication
            X509v3 Key Usage: 
                Digital Signature, Key Encipherment
    Signature Algorithm: sha256WithRSAEncryption
         ad:33:95:0a:56:4b:c7:44:60:cf:84:d1:bc:ab:e1:5d:17:ab:
         d9:e3:95:3b:46:2f:fa:4e:ce:18:c3:7c:d5:a0:82:e8:a3:7b:
         3b:ef:c5:08:d7:fc:44:43:e9:a4:3f:48:d6:bd:7d:d6:92:c8:
         02:36:06:0f:e3:f4:00:f2:64:67:82:d6:78:6f:53:3e:8e:74:
         c4:f4:5a:ec:2e:ba:7a:bf:30:04:4f:6e:f7:6d:b6:5d:d3:08:
         9a:f6:b8:86:28:a2:7d:fc:e8:56:e9:5c:44:d1:7c:5d:d1:b4:
         30:c5:78:28:fa:27:27:7b:f6:22:e7:58:dc:7d:3d:c1:78:89:
         57:15:37:93:b1:27:15:a9:22:2e:ef:4a:d5:b8:e0:47:17:01:
         08:b7:26:30:4c:e7:1a:16:45:f1:0a:07:a5:f4:da:07:d9:1b:
         22:ba:19:8a:8c:64:e0:31:ae:3e:50:35:00:4f:ab:80:1e:fd:
         69:c2:65:63:8f:40:44:6d:b1:aa:ba:1e:9a:ee:d6:d7:13:1e:
         54:fa:53:29:16:d9:4e:82:9d:fd:f6:42:1e:4b:59:74:c0:c3:
         0d:fd:46:ea:f1:4b:40:71:53:e2:34:74:72:80:e2:d9:35:70:
         90:ab:47:fa:7f:99:56:6a:00:dc:b1:b1:fa:bd:b5:98:eb:59:
         3a:d7:12:88
-----BEGIN CERTIFICATE-----
MIIFaTCCBFGgAwIBAgIBATANBgkqhkiG9w0BAQsFADCBtjELMAkGA1UEBhMCVVMx
CzAJBgNVBAgTAkNBMRUwEwYDVQQHEwxTYW5GcmFuY2lzY28xFTATBgNVBAoTDEZv
cnQtRnVuc3RvbjEdMBsGA1UECxMUTXlPcmdhbml6YXRpb25hbFVuaXQxGDAWBgNV
BAMTD0ZvcnQtRnVuc3RvbiBDQTEQMA4GA1UEKRMHRWFzeVJTQTEhMB8GCSqGSIb3
DQEJARYSbWVAbXlob3N0Lm15ZG9tYWluMB4XDTIwMTEyOTE5MDE0MVoXDTMwMTEy
NzE5MDE0MVowga0xCzAJBgNVBAYTAlVTMQswCQYDVQQIEwJDQTEVMBMGA1UEBxMM
U2FuRnJhbmNpc2NvMRUwEwYDVQQKEwxGb3J0LUZ1bnN0b24xHTAbBgNVBAsTFE15
T3JnYW5pemF0aW9uYWxVbml0MQ8wDQYDVQQDEwZzZXJ2ZXIxEDAOBgNVBCkTB0Vh
c3lSU0ExITAfBgkqhkiG9w0BCQEWEm1lQG15aG9zdC5teWRvbWFpbjCCASIwDQYJ
KoZIhvcNAQEBBQADggEPADCCAQoCggEBAOKzshQYYiSD2uIDPhXrokBODr208Rse
Eb/HEtnJSIOFyta41SSwS9keaAGWH5c34qLIBMY5vH0D+4+dJgN+2WjKRlrxUisB
2N20Ran1YDiV1FZIlSyLDs7JpcrptPJa6zhiC+RjHImquRKAOwB7Vg3bvzQuFNfh
O23U1wLv+zaEtNkrR5sm31ypcxxYJ/4OZC0RfD8jYhFCXEVYP+OittUw5Ybpmw9B
g4qDvBKwrGVEBViLNjY0OYWkF7fXc3FNjQFPmJXvwuPekP/U3O0B9V/d5NfUAp/f
PtxCS2v+zO8+Pz8e7YWIXWYRBF/e2QXHQkeTrlttrtDIBAnFT2Aj6IECAwEAAaOC
AYcwggGDMAkGA1UdEwQCMAAwEQYJYIZIAYb4QgEBBAQDAgZAMDQGCWCGSAGG+EIB
DQQnFiVFYXN5LVJTQSBHZW5lcmF0ZWQgU2VydmVyIENlcnRpZmljYXRlMB0GA1Ud
DgQWBBRVY5KaPnusjZu8GIuVzzHSsYZd7TCB6wYDVR0jBIHjMIHggBRr/ovyOcKY
oOsumaL8GTJ24iZpXaGBvKSBuTCBtjELMAkGA1UEBhMCVVMxCzAJBgNVBAgTAkNB
MRUwEwYDVQQHEwxTYW5GcmFuY2lzY28xFTATBgNVBAoTDEZvcnQtRnVuc3RvbjEd
MBsGA1UECxMUTXlPcmdhbml6YXRpb25hbFVuaXQxGDAWBgNVBAMTD0ZvcnQtRnVu
c3RvbiBDQTEQMA4GA1UEKRMHRWFzeVJTQTEhMB8GCSqGSIb3DQEJARYSbWVAbXlo
b3N0Lm15ZG9tYWluggkAkTnYWgd/wnIwEwYDVR0lBAwwCgYIKwYBBQUHAwEwCwYD
VR0PBAQDAgWgMA0GCSqGSIb3DQEBCwUAA4IBAQCtM5UKVkvHRGDPhNG8q+FdF6vZ
45U7Ri/6Ts4Yw3zVoILoo3s778UI1/xEQ+mkP0jWvX3WksgCNgYP4/QA8mRngtZ4
b1M+jnTE9FrsLrp6vzAET273bbZd0wia9riGKKJ9/OhW6VxE0Xxd0bQwxXgo+icn
e/Yi51jcfT3BeIlXFTeTsScVqSIu70rVuOBHFwEItyYwTOcaFkXxCgel9NoH2Rsi
uhmKjGTgMa4+UDUAT6uAHv1pwmVjj0BEbbGquh6a7tbXEx5U+lMpFtlOgp399kIe
S1l0wMMN/Ubq8UtAcVPiNHRygOLZNXCQq0f6f5lWagDcsbH6vbWY61k61xKI
-----END CERTIFICATE-----
