Certificate:
    Data:
        Version: 3 (0x2)
        Serial Number: 2 (0x2)
    Signature Algorithm: sha256WithRSAEncryption
        Issuer: C=US, ST=CA, L=SanFrancisco, O=Fort-Funston, OU=MyOrganizationalUnit, CN=Fort-Funston CA/name=EasyRSA/emailAddress=me@myhost.mydomain
        Validity
            Not Before: Nov 29 19:01:51 2020 GMT
            Not After : Nov 27 19:01:51 2030 GMT
        Subject: C=US, ST=CA, L=SanFrancisco, O=Fort-Funston, OU=MyOrganizationalUnit, CN=client/name=EasyRSA/emailAddress=me@myhost.mydomain
        Subject Public Key Info:
            Public Key Algorithm: rsaEncryption
                Public-Key: (2048 bit)
                Modulus:
                    00:bd:d6:10:83:22:25:f1:45:ef:a0:5c:7f:41:dc:
                    8d:ca:63:a2:13:92:72:29:a0:8c:05:a4:41:d2:b5:
                    e6:b2:0d:e9:0e:ee:47:27:04:7b:51:7b:f0:46:63:
                    d8:62:08:24:fe:e7:56:d8:05:55:ff:a5:cf:36:e7:
                    0e:33:a6:31:15:25:b3:cc:17:97:f8:aa:e8:3e:14:
                    3a:4b:9c:6d:9b:79:e7:9b:8a:e3:aa:fa:80:a4:4c:
                    b9:31:96:bc:7d:c0:8b:d5:d3:56:65:d1:3a:a8:10:
                    c4:da:ae:74:cd:fb:47:90:48:db:94:09:19:32:76:
                    4b:71:f1:30:4d:5c:3f:db:ef:e9:df:2b:64:65:e2:
                    4c:b1:af:05:89:23:7f:70:b0:8d:b7:c8:a7:dc:c6:
                    21:7f:e0:91:08:83:88:a4:25:98:fe:21:22:ef:59:
                    16:15:e1:e6:79:98:56:fe:40:77:eb:47:0a:f0:f8:
                    95:9e:76:f3:19:52:76:15:06:48:47:9c:80:c8:47:
                    75:37:88:28:b8:84:b8:04:e2:db:c0:a8:57:dd:70:
                    ca:89:78:d0:46:b8:3d:43:c9:0f:e2:87:18:41:74:
                    65:56:b1:98:bf:ae:8c:84:7c:9f:46:d6:e5:73:80:
                    9c:e8:b5:82:c7:eb:0c:7b:c1:43:4e:5a:4c:f2:96:
                    32:83
                Exponent: 65537 (0x10001)
        X509v3 extensions:
            X509v3 Basic Constraints: 
                CA:FALSE
            Netscape Comment: 
                Easy-RSA Generated Certificate
            X509v3 Subject Key Identifier: 
                B8:D4:8B:9E:B2:91:B2:CF:20:7D:7E:C7:5A:B9:2D:D6:4E:9F:D1:B8
            X509v3 Authority Key Identifier: 
                keyid:6B:FE:8B:F2:39:C2:98:A0:EB:2E:99:A2:FC:19:32:76:E2:26:69:5D
                DirName:/C=US/ST=CA/L=SanFrancisco/O=Fort-Funston/OU=MyOrganizationalUnit/CN=Fort-Funston CA/name=EasyRSA/emailAddress=me@myhost.mydomain
                serial:91:39:D8:5A:07:7F:C2:72

            X509v3 Extended Key Usage: 
                TLS Web Client Authentication
            X509v3 Key Usage: 
                Digital Signature
    Signature Algorithm: sha256WithRSAEncryption
         bb:33:64:d3:d2:56:d2:ad:ce:6c:f8:8d:2c:1e:68:84:da:68:
         bb:df:54:64:17:41:f4:ad:b3:67:af:17:b6:96:62:f5:40:fc:
         9b:54:69:95:d8:b7:12:87:75:69:e3:85:ca:c0:5e:a8:2f:7f:
         d1:4e:cf:ee:e2:07:3c:0c:a3:c9:55:e9:86:61:32:47:e3:a4:
         51:61:7d:7c:26:8c:7d:34:c1:86:13:53:10:de:4c:6d:d6:96:
         54:cd:09:12:c5:8e:1e:a1:72:85:91:b3:15:e1:a7:f5:ec:00:
         3e:1d:dc:2d:c2:2a:7d:7b:dd:77:39:3b:60:bd:06:13:7c:4c:
         5d:c7:d0:da:f5:52:9d:2c:33:8d:6b:5a:d7:ab:a7:40:3a:11:
         8e:43:3a:9e:0b:b9:a6:48:1a:8a:0b:54:81:c7:78:54:47:ac:
         e3:41:bb:b9:c1:2f:97:68:c1:73:46:22:e5:12:7a:10:b7:8a:
         6b:7a:f8:9c:0b:6a:7e:d3:2b:0a:36:81:eb:a5:d7:d7:b7:e7:
         01:fd:36:db:6d:e3:ee:54:e4:32:62:14:6d:e9:e7:38:df:13:
         dc:8c:46:ad:67:23:f1:84:b8:59:df:0c:2b:84:8c:0e:96:8a:
         28:21:3d:38:11:ab:70:7d:0c:2a:54:83:d7:9c:62:a7:38:3e:
         7f:47:de:59
-----BEGIN CERTIFICATE-----
MIIFTzCCBDegAwIBAgIBAjANBgkqhkiG9w0BAQsFADCBtjELMAkGA1UEBhMCVVMx
CzAJBgNVBAgTAkNBMRUwEwYDVQQHEwxTYW5GcmFuY2lzY28xFTATBgNVBAoTDEZv
cnQtRnVuc3RvbjEdMBsGA1UECxMUTXlPcmdhbml6YXRpb25hbFVuaXQxGDAWBgNV
BAMTD0ZvcnQtRnVuc3RvbiBDQTEQMA4GA1UEKRMHRWFzeVJTQTEhMB8GCSqGSIb3
DQEJARYSbWVAbXlob3N0Lm15ZG9tYWluMB4XDTIwMTEyOTE5MDE1MVoXDTMwMTEy
NzE5MDE1MVowga0xCzAJBgNVBAYTAlVTMQswCQYDVQQIEwJDQTEVMBMGA1UEBxMM
U2FuRnJhbmNpc2NvMRUwEwYDVQQKEwxGb3J0LUZ1bnN0b24xHTAbBgNVBAsTFE15
T3JnYW5pemF0aW9uYWxVbml0MQ8wDQYDVQQDEwZjbGllbnQxEDAOBgNVBCkTB0Vh
c3lSU0ExITAfBgkqhkiG9w0BCQEWEm1lQG15aG9zdC5teWRvbWFpbjCCASIwDQYJ
KoZIhvcNAQEBBQADggEPADCCAQoCggEBAL3WEIMiJfFF76Bcf0HcjcpjohOScimg
jAWkQdK15rIN6Q7uRycEe1F78EZj2GIIJP7nVtgFVf+lzzbnDjOmMRUls8wXl/iq
6D4UOkucbZt555uK46r6gKRMuTGWvH3Ai9XTVmXROqgQxNqudM37R5BI25QJGTJ2
S3HxME1cP9vv6d8rZGXiTLGvBYkjf3CwjbfIp9zGIX/gkQiDiKQlmP4hIu9ZFhXh
5nmYVv5Ad+tHCvD4lZ528xlSdhUGSEecgMhHdTeIKLiEuATi28CoV91wyol40Ea4
PUPJD+KHGEF0ZVaxmL+ujIR8n0bW5XOAnOi1gsfrDHvBQ05aTPKWMoMCAwEAAaOC
AW0wggFpMAkGA1UdEwQCMAAwLQYJYIZIAYb4QgENBCAWHkVhc3ktUlNBIEdlbmVy
YXRlZCBDZXJ0aWZpY2F0ZTAdBgNVHQ4EFgQUuNSLnrKRss8gfX7HWrkt1k6f0bgw
gesGA1UdIwSB4zCB4IAUa/6L8jnCmKDrLpmi/BkyduImaV2hgbykgbkwgbYxCzAJ
BgNVBAYTAlVTMQswCQYDVQQIEwJDQTEVMBMGA1UEBxMMU2FuRnJhbmNpc2NvMRUw
EwYDVQQKEwxGb3J0LUZ1bnN0b24xHTAbBgNVBAsTFE15T3JnYW5pemF0aW9uYWxV
bml0MRgwFgYDVQQDEw9Gb3J0LUZ1bnN0b24gQ0ExEDAOBgNVBCkTB0Vhc3lSU0Ex
ITAfBgkqhkiG9w0BCQEWEm1lQG15aG9zdC5teWRvbWFpboIJAJE52FoHf8JyMBMG
A1UdJQQMMAoGCCsGAQUFBwMCMAsGA1UdDwQEAwIHgDANBgkqhkiG9w0BAQsFAAOC
AQEAuzNk09JW0q3ObPiNLB5ohNpou99UZBdB9K2zZ68XtpZi9UD8m1Rpldi3Eod1
aeOFysBeqC9/0U7P7uIHPAyjyVXphmEyR+OkUWF9fCaMfTTBhhNTEN5MbdaWVM0J
EsWOHqFyhZGzFeGn9ewAPh3cLcIqfXvddzk7YL0GE3xMXcfQ2vVSnSwzjWta16un
QDoRjkM6ngu5pkgaigtUgcd4VEes40G7ucEvl2jBc0Yi5RJ6ELeKa3r4nAtqftMr
CjaB66XX17fnAf02223j7lTkMmIUbennON8T3IxGrWcj8YS4Wd8MK4SMDpaKKCE9
OBGrcH0MKlSD15xipzg+f0feWQ==
-----END CERTIFICATE-----
